target datalayout = "e-m:e-p270:32:32-p271:32:32-p272:64:64-i64:64-i128:128-f80:128-n8:16:32:64-S128"
target triple = "x86_64-pc-linux-gnu"

%"struct.cv::SimpleBlobDetector::Params" = type <{ float, float, float, [4 x i8], i64, float, i8, i8, i8, i8, float, float, i8, [3 x i8], float, float, i8, [3 x i8], float, float, i8, [3 x i8], float, float, i8, [3 x i8] }>

; Function Attrs: mustprogress nounwind uwtable
define linkonce_odr hidden noundef float @_ZNSt14numeric_limitsIfE3maxEv() #6 comdat align 2 {
  ret float 0x47EFFFFFE0000000
}

; Function Attrs: mustprogress nounwind uwtable
define void @_ZN2cv18SimpleBlobDetector6ParamsC2Ev(ptr noundef nonnull align 8 dereferenceable(77) %0) unnamed_addr #6 align 2 {
  %2 = alloca ptr, align 8
  store ptr %0, ptr %2, align 8
  %3 = load ptr, ptr %2, align 8
  %4 = getelementptr inbounds %"struct.cv::SimpleBlobDetector::Params", ptr %3, i32 0, i32 0
  store float 1.000000e+01, ptr %4, align 8
  %5 = getelementptr inbounds %"struct.cv::SimpleBlobDetector::Params", ptr %3, i32 0, i32 1
  store float 5.000000e+01, ptr %5, align 4
  %6 = getelementptr inbounds %"struct.cv::SimpleBlobDetector::Params", ptr %3, i32 0, i32 2
  store float 2.200000e+02, ptr %6, align 8
  %7 = getelementptr inbounds %"struct.cv::SimpleBlobDetector::Params", ptr %3, i32 0, i32 4
  store i64 2, ptr %7, align 8
  %8 = getelementptr inbounds %"struct.cv::SimpleBlobDetector::Params", ptr %3, i32 0, i32 5
  store float 1.000000e+01, ptr %8, align 8
  %9 = getelementptr inbounds %"struct.cv::SimpleBlobDetector::Params", ptr %3, i32 0, i32 6
  store i8 1, ptr %9, align 4
  %10 = getelementptr inbounds %"struct.cv::SimpleBlobDetector::Params", ptr %3, i32 0, i32 7
  store i8 0, ptr %10, align 1
  %11 = getelementptr inbounds %"struct.cv::SimpleBlobDetector::Params", ptr %3, i32 0, i32 8
  store i8 1, ptr %11, align 2
  %12 = getelementptr inbounds %"struct.cv::SimpleBlobDetector::Params", ptr %3, i32 0, i32 10
  store float 2.500000e+01, ptr %12, align 8
  %13 = getelementptr inbounds %"struct.cv::SimpleBlobDetector::Params", ptr %3, i32 0, i32 11
  store float 5.000000e+03, ptr %13, align 4
  %14 = getelementptr inbounds %"struct.cv::SimpleBlobDetector::Params", ptr %3, i32 0, i32 12
  store i8 0, ptr %14, align 8
  %15 = getelementptr inbounds %"struct.cv::SimpleBlobDetector::Params", ptr %3, i32 0, i32 14
  store float 0x3FE99999A0000000, ptr %15, align 4
  %16 = call noundef float @_ZNSt14numeric_limitsIfE3maxEv() #3
  %17 = getelementptr inbounds %"struct.cv::SimpleBlobDetector::Params", ptr %3, i32 0, i32 15
  store float %16, ptr %17, align 8
  %18 = getelementptr inbounds %"struct.cv::SimpleBlobDetector::Params", ptr %3, i32 0, i32 16
  store i8 1, ptr %18, align 4
  %19 = getelementptr inbounds %"struct.cv::SimpleBlobDetector::Params", ptr %3, i32 0, i32 18
  store float 0x3FB99999A0000000, ptr %19, align 8
  %20 = call noundef float @_ZNSt14numeric_limitsIfE3maxEv() #3
  %21 = getelementptr inbounds %"struct.cv::SimpleBlobDetector::Params", ptr %3, i32 0, i32 19
  store float %20, ptr %21, align 4
  %22 = getelementptr inbounds %"struct.cv::SimpleBlobDetector::Params", ptr %3, i32 0, i32 20
  store i8 1, ptr %22, align 8
  %23 = getelementptr inbounds %"struct.cv::SimpleBlobDetector::Params", ptr %3, i32 0, i32 22
  store float 0x3FEE666660000000, ptr %23, align 4
  %24 = call noundef float @_ZNSt14numeric_limitsIfE3maxEv() #3
  %25 = getelementptr inbounds %"struct.cv::SimpleBlobDetector::Params", ptr %3, i32 0, i32 23
  store float %24, ptr %25, align 8
  %26 = getelementptr inbounds %"struct.cv::SimpleBlobDetector::Params", ptr %3, i32 0, i32 24
  store i8 0, ptr %26, align 4
  ret void
}