; Function Attrs: mustprogress nofree norecurse nosync nounwind willreturn memory(argmem: write) uwtable
define void @_ZN2cv18SimpleBlobDetector6ParamsC2Ev(ptr nocapture noundef nonnull writeonly align 8 dereferenceable(77) %0) unnamed_addr #5 align 2 {
  store <2 x float> <float 1.000000e+01, float 5.000000e+01>, ptr %0, align 8
  %2 = getelementptr inbounds i8, ptr %0, i64 8
  store float 2.200000e+02, ptr %2, align 8
  %3 = getelementptr inbounds i8, ptr %0, i64 16
  store i64 2, ptr %3, align 8
  %4 = getelementptr inbounds i8, ptr %0, i64 24
  store float 1.000000e+01, ptr %4, align 8
  %5 = getelementptr inbounds i8, ptr %0, i64 28
  store i8 1, ptr %5, align 4
  %6 = getelementptr inbounds i8, ptr %0, i64 29
  store i8 0, ptr %6, align 1
  %7 = getelementptr inbounds i8, ptr %0, i64 30
  store i8 1, ptr %7, align 2
  %8 = getelementptr inbounds i8, ptr %0, i64 32
  store <2 x float> <float 2.500000e+01, float 5.000000e+03>, ptr %8, align 8
  %9 = getelementptr inbounds i8, ptr %0, i64 40
  store i8 0, ptr %9, align 8
  %10 = getelementptr inbounds i8, ptr %0, i64 44
  store <2 x float> <float 0x3FE99999A0000000, float 0x47EFFFFFE0000000>, ptr %10, align 4
  %11 = getelementptr inbounds i8, ptr %0, i64 52
  store i8 1, ptr %11, align 4
  %12 = getelementptr inbounds i8, ptr %0, i64 56
  store <2 x float> <float 0x3FB99999A0000000, float 0x47EFFFFFE0000000>, ptr %12, align 8
  %13 = getelementptr inbounds i8, ptr %0, i64 64
  store i8 1, ptr %13, align 8
  %14 = getelementptr inbounds i8, ptr %0, i64 68
  store <2 x float> <float 0x3FEE666660000000, float 0x47EFFFFFE0000000>, ptr %14, align 4
  %15 = getelementptr inbounds i8, ptr %0, i64 76
  store i8 0, ptr %15, align 4
  ret void
}